target datalayout = "e-m:e-p270:32:32-p271:32:32-p272:64:64-i64:64-i128:128-f80:128-n8:16:32:64-S128"
target triple = "x86_64-unknown-linux-gnu"

%class.btVector3 = type { [4 x float] }
%struct.MyNodeOverlapCallback = type { %class.btNodeOverlapCallback, ptr, ptr }
%class.btNodeOverlapCallback = type { ptr }
%class.btStridingMeshInterface = type { ptr, %class.btVector3 }

; Function Attrs: mustprogress nounwind uwtable
define linkonce_odr dso_local void @_ZN9btVector3C2ERKfS1_S1_(ptr noundef nonnull align 4 dereferenceable(16) %this, ptr noundef nonnull align 4 dereferenceable(4) %_x, ptr noundef nonnull align 4 dereferenceable(4) %_y, ptr noundef nonnull align 4 dereferenceable(4) %_z) unnamed_addr #1 comdat align 2 {
entry:
  %this.addr = alloca ptr, align 8
  %_x.addr = alloca ptr, align 8
  %_y.addr = alloca ptr, align 8
  %_z.addr = alloca ptr, align 8
  store ptr %this, ptr %this.addr, align 8
  store ptr %_x, ptr %_x.addr, align 8
  store ptr %_y, ptr %_y.addr, align 8
  store ptr %_z, ptr %_z.addr, align 8
  %this1 = load ptr, ptr %this.addr, align 8
  %0 = load ptr, ptr %_x.addr, align 8
  %1 = load float, ptr %0, align 4
  %m_floats = getelementptr inbounds %class.btVector3, ptr %this1, i32 0, i32 0
  %arrayidx = getelementptr inbounds [4 x float], ptr %m_floats, i64 0, i64 0
  store float %1, ptr %arrayidx, align 4
  %2 = load ptr, ptr %_y.addr, align 8
  %3 = load float, ptr %2, align 4
  %m_floats2 = getelementptr inbounds %class.btVector3, ptr %this1, i32 0, i32 0
  %arrayidx3 = getelementptr inbounds [4 x float], ptr %m_floats2, i64 0, i64 1
  store float %3, ptr %arrayidx3, align 4
  %4 = load ptr, ptr %_z.addr, align 8
  %5 = load float, ptr %4, align 4
  %m_floats4 = getelementptr inbounds %class.btVector3, ptr %this1, i32 0, i32 0
  %arrayidx5 = getelementptr inbounds [4 x float], ptr %m_floats4, i64 0, i64 2
  store float %5, ptr %arrayidx5, align 4
  %m_floats6 = getelementptr inbounds %class.btVector3, ptr %this1, i32 0, i32 0
  %arrayidx7 = getelementptr inbounds [4 x float], ptr %m_floats6, i64 0, i64 3
  store float 0.000000e+00, ptr %arrayidx7, align 4
  ret void
}

; Function Attrs: mustprogress nounwind uwtable
define linkonce_odr dso_local noundef nonnull align 4 dereferenceable(4) ptr @_ZNK9btVector34getZEv(ptr noundef nonnull align 4 dereferenceable(16) %this) #1 comdat align 2 {
entry:
  %this.addr = alloca ptr, align 8
  store ptr %this, ptr %this.addr, align 8
  %this1 = load ptr, ptr %this.addr, align 8
  %m_floats = getelementptr inbounds %class.btVector3, ptr %this1, i32 0, i32 0
  %arrayidx = getelementptr inbounds [4 x float], ptr %m_floats, i64 0, i64 2
  ret ptr %arrayidx
}

; Function Attrs: mustprogress nounwind uwtable
define linkonce_odr dso_local noundef nonnull align 4 dereferenceable(4) ptr @_ZNK9btVector34getYEv(ptr noundef nonnull align 4 dereferenceable(16) %this) #1 comdat align 2 {
entry:
  %this.addr = alloca ptr, align 8
  store ptr %this, ptr %this.addr, align 8
  %this1 = load ptr, ptr %this.addr, align 8
  %m_floats = getelementptr inbounds %class.btVector3, ptr %this1, i32 0, i32 0
  %arrayidx = getelementptr inbounds [4 x float], ptr %m_floats, i64 0, i64 1
  ret ptr %arrayidx
}

; Function Attrs: mustprogress nounwind uwtable
define linkonce_odr dso_local noundef nonnull align 4 dereferenceable(4) ptr @_ZNK9btVector34getXEv(ptr noundef nonnull align 4 dereferenceable(16) %this) #1 comdat align 2 {
entry:
  %this.addr = alloca ptr, align 8
  store ptr %this, ptr %this.addr, align 8
  %this1 = load ptr, ptr %this.addr, align 8
  %m_floats = getelementptr inbounds %class.btVector3, ptr %this1, i32 0, i32 0
  %arrayidx = getelementptr inbounds [4 x float], ptr %m_floats, i64 0, i64 0
  ret ptr %arrayidx
}

; Function Attrs: mustprogress nounwind uwtable
define linkonce_odr dso_local noundef nonnull align 4 dereferenceable(16) ptr @_ZNK23btStridingMeshInterface10getScalingEv(ptr noundef nonnull align 8 dereferenceable(24) %this) #1 comdat align 2 {
entry:
  %this.addr = alloca ptr, align 8
  store ptr %this, ptr %this.addr, align 8
  %this1 = load ptr, ptr %this.addr, align 8
  %m_scaling = getelementptr inbounds %class.btStridingMeshInterface, ptr %this1, i32 0, i32 1
  ret ptr %m_scaling
}

; Function Attrs: mustprogress nounwind uwtable
define linkonce_odr dso_local void @_ZN9btVector3C2Ev(ptr noundef nonnull align 4 dereferenceable(16) %this) unnamed_addr #1 comdat align 2 {
entry:
  %this.addr = alloca ptr, align 8
  store ptr %this, ptr %this.addr, align 8
  ret void
}

; Function Attrs: mustprogress uwtable
define internal void @_ZZN22btBvhTriangleMeshShape14performRaycastEP18btTriangleCallbackRK9btVector3S4_EN21MyNodeOverlapCallback11processNodeEii(ptr noundef nonnull align 8 dereferenceable(24) %this, i32 noundef %nodeSubPart, i32 noundef %nodeTriangleIndex) unnamed_addr #2 align 2 {
entry:
  %this.addr = alloca ptr, align 8
  %nodeSubPart.addr = alloca i32, align 4
  %nodeTriangleIndex.addr = alloca i32, align 4
  %m_triangle = alloca [3 x %class.btVector3], align 16
  %vertexbase = alloca ptr, align 8
  %numverts = alloca i32, align 4
  %type = alloca i32, align 4
  %stride = alloca i32, align 4
  %indexbase = alloca ptr, align 8
  %indexstride = alloca i32, align 4
  %numfaces = alloca i32, align 4
  %indicestype = alloca i32, align 4
  %gfxbase = alloca ptr, align 8
  %meshScaling = alloca ptr, align 8
  %j = alloca i32, align 4
  %graphicsindex = alloca i32, align 4
  %graphicsbase = alloca ptr, align 8
  %ref.tmp = alloca %class.btVector3, align 4
  %ref.tmp14 = alloca float, align 4
  %ref.tmp18 = alloca float, align 4
  %ref.tmp22 = alloca float, align 4
  %graphicsbase28 = alloca ptr, align 8
  %ref.tmp32 = alloca %class.btVector3, align 4
  %ref.tmp33 = alloca float, align 4
  %ref.tmp38 = alloca float, align 4
  %ref.tmp43 = alloca float, align 4
  store ptr %this, ptr %this.addr, align 8
  store i32 %nodeSubPart, ptr %nodeSubPart.addr, align 4
  store i32 %nodeTriangleIndex, ptr %nodeTriangleIndex.addr, align 4
  %this1 = load ptr, ptr %this.addr, align 8
  %array.begin = getelementptr inbounds [3 x %class.btVector3], ptr %m_triangle, i32 0, i32 0
  %arrayctor.end = getelementptr inbounds %class.btVector3, ptr %array.begin, i64 3
  br label %arrayctor.loop

arrayctor.loop:                                   ; preds = %arrayctor.loop, %entry
  %arrayctor.cur = phi ptr [ %array.begin, %entry ], [ %arrayctor.next, %arrayctor.loop ]
  call void @_ZN9btVector3C2Ev(ptr noundef nonnull align 4 dereferenceable(16) %arrayctor.cur)
  %arrayctor.next = getelementptr inbounds %class.btVector3, ptr %arrayctor.cur, i64 1
  %arrayctor.done = icmp eq ptr %arrayctor.next, %arrayctor.end
  br i1 %arrayctor.done, label %arrayctor.cont, label %arrayctor.loop

arrayctor.cont:                                   ; preds = %arrayctor.loop
  %m_meshInterface = getelementptr inbounds %struct.MyNodeOverlapCallback, ptr %this1, i32 0, i32 1
  %0 = load ptr, ptr %m_meshInterface, align 8
  %1 = load i32, ptr %nodeSubPart.addr, align 4
  %vtable = load ptr, ptr %0, align 8
  %vfn = getelementptr inbounds ptr, ptr %vtable, i64 4
  %2 = load ptr, ptr %vfn, align 8
  call void %2(ptr noundef nonnull align 8 dereferenceable(24) %0, ptr noundef %vertexbase, ptr noundef nonnull align 4 dereferenceable(4) %numverts, ptr noundef nonnull align 4 dereferenceable(4) %type, ptr noundef nonnull align 4 dereferenceable(4) %stride, ptr noundef %indexbase, ptr noundef nonnull align 4 dereferenceable(4) %indexstride, ptr noundef nonnull align 4 dereferenceable(4) %numfaces, ptr noundef nonnull align 4 dereferenceable(4) %indicestype, i32 noundef %1)
  %3 = load ptr, ptr %indexbase, align 8
  %4 = load i32, ptr %nodeTriangleIndex.addr, align 4
  %5 = load i32, ptr %indexstride, align 4
  %mul = mul nsw i32 %4, %5
  %idx.ext = sext i32 %mul to i64
  %add.ptr = getelementptr inbounds i8, ptr %3, i64 %idx.ext
  store ptr %add.ptr, ptr %gfxbase, align 8
  %m_meshInterface2 = getelementptr inbounds %struct.MyNodeOverlapCallback, ptr %this1, i32 0, i32 1
  %6 = load ptr, ptr %m_meshInterface2, align 8
  %call = call noundef nonnull align 4 dereferenceable(16) ptr @_ZNK23btStridingMeshInterface10getScalingEv(ptr noundef nonnull align 8 dereferenceable(24) %6)
  store ptr %call, ptr %meshScaling, align 8
  store i32 2, ptr %j, align 4
  br label %for.cond

for.cond:                                         ; preds = %for.inc, %arrayctor.cont
  %7 = load i32, ptr %j, align 4
  %cmp = icmp sge i32 %7, 0
  br i1 %cmp, label %for.body, label %for.end

for.body:                                         ; preds = %for.cond
  %8 = load i32, ptr %indicestype, align 4
  switch i32 %8, label %sw.default [
    i32 2, label %sw.bb
    i32 3, label %sw.bb3
    i32 5, label %sw.bb6
  ]

sw.bb:                                            ; preds = %for.body
  %9 = load ptr, ptr %gfxbase, align 8
  %10 = load i32, ptr %j, align 4
  %idxprom = sext i32 %10 to i64
  %arrayidx = getelementptr inbounds i32, ptr %9, i64 %idxprom
  %11 = load i32, ptr %arrayidx, align 4
  store i32 %11, ptr %graphicsindex, align 4
  br label %sw.epilog

sw.bb3:                                           ; preds = %for.body
  %12 = load ptr, ptr %gfxbase, align 8
  %13 = load i32, ptr %j, align 4
  %idxprom4 = sext i32 %13 to i64
  %arrayidx5 = getelementptr inbounds i16, ptr %12, i64 %idxprom4
  %14 = load i16, ptr %arrayidx5, align 2
  %conv = zext i16 %14 to i32
  store i32 %conv, ptr %graphicsindex, align 4
  br label %sw.epilog

sw.bb6:                                           ; preds = %for.body
  %15 = load ptr, ptr %gfxbase, align 8
  %16 = load i32, ptr %j, align 4
  %idxprom7 = sext i32 %16 to i64
  %arrayidx8 = getelementptr inbounds i8, ptr %15, i64 %idxprom7
  %17 = load i8, ptr %arrayidx8, align 1
  %conv9 = zext i8 %17 to i32
  store i32 %conv9, ptr %graphicsindex, align 4
  br label %sw.epilog

sw.default:                                       ; preds = %for.body
  br label %sw.epilog

sw.epilog:                                        ; preds = %sw.default, %sw.bb6, %sw.bb3, %sw.bb
  %18 = load i32, ptr %type, align 4
  %cmp10 = icmp eq i32 %18, 0
  br i1 %cmp10, label %if.then, label %if.else

if.then:                                          ; preds = %sw.epilog
  %19 = load ptr, ptr %vertexbase, align 8
  %20 = load i32, ptr %graphicsindex, align 4
  %21 = load i32, ptr %stride, align 4
  %mul11 = mul nsw i32 %20, %21
  %idx.ext12 = sext i32 %mul11 to i64
  %add.ptr13 = getelementptr inbounds i8, ptr %19, i64 %idx.ext12
  store ptr %add.ptr13, ptr %graphicsbase, align 8
  %22 = load ptr, ptr %graphicsbase, align 8
  %arrayidx15 = getelementptr inbounds float, ptr %22, i64 0
  %23 = load float, ptr %arrayidx15, align 4
  %24 = load ptr, ptr %meshScaling, align 8
  %call16 = call noundef nonnull align 4 dereferenceable(4) ptr @_ZNK9btVector34getXEv(ptr noundef nonnull align 4 dereferenceable(16) %24)
  %25 = load float, ptr %call16, align 4
  %mul17 = fmul float %23, %25
  store float %mul17, ptr %ref.tmp14, align 4
  %26 = load ptr, ptr %graphicsbase, align 8
  %arrayidx19 = getelementptr inbounds float, ptr %26, i64 1
  %27 = load float, ptr %arrayidx19, align 4
  %28 = load ptr, ptr %meshScaling, align 8
  %call20 = call noundef nonnull align 4 dereferenceable(4) ptr @_ZNK9btVector34getYEv(ptr noundef nonnull align 4 dereferenceable(16) %28)
  %29 = load float, ptr %call20, align 4
  %mul21 = fmul float %27, %29
  store float %mul21, ptr %ref.tmp18, align 4
  %30 = load ptr, ptr %graphicsbase, align 8
  %arrayidx23 = getelementptr inbounds float, ptr %30, i64 2
  %31 = load float, ptr %arrayidx23, align 4
  %32 = load ptr, ptr %meshScaling, align 8
  %call24 = call noundef nonnull align 4 dereferenceable(4) ptr @_ZNK9btVector34getZEv(ptr noundef nonnull align 4 dereferenceable(16) %32)
  %33 = load float, ptr %call24, align 4
  %mul25 = fmul float %31, %33
  store float %mul25, ptr %ref.tmp22, align 4
  call void @_ZN9btVector3C2ERKfS1_S1_(ptr noundef nonnull align 4 dereferenceable(16) %ref.tmp, ptr noundef nonnull align 4 dereferenceable(4) %ref.tmp14, ptr noundef nonnull align 4 dereferenceable(4) %ref.tmp18, ptr noundef nonnull align 4 dereferenceable(4) %ref.tmp22)
  %34 = load i32, ptr %j, align 4
  %idxprom26 = sext i32 %34 to i64
  %arrayidx27 = getelementptr inbounds [3 x %class.btVector3], ptr %m_triangle, i64 0, i64 %idxprom26
  call void @llvm.memcpy.p0.p0.i64(ptr align 16 %arrayidx27, ptr align 4 %ref.tmp, i64 16, i1 false)
  br label %if.end

if.else:                                          ; preds = %sw.epilog
  %35 = load ptr, ptr %vertexbase, align 8
  %36 = load i32, ptr %graphicsindex, align 4
  %37 = load i32, ptr %stride, align 4
  %mul29 = mul nsw i32 %36, %37
  %idx.ext30 = sext i32 %mul29 to i64
  %add.ptr31 = getelementptr inbounds i8, ptr %35, i64 %idx.ext30
  store ptr %add.ptr31, ptr %graphicsbase28, align 8
  %38 = load ptr, ptr %graphicsbase28, align 8
  %arrayidx34 = getelementptr inbounds double, ptr %38, i64 0
  %39 = load double, ptr %arrayidx34, align 8
  %conv35 = fptrunc double %39 to float
  %40 = load ptr, ptr %meshScaling, align 8
  %call36 = call noundef nonnull align 4 dereferenceable(4) ptr @_ZNK9btVector34getXEv(ptr noundef nonnull align 4 dereferenceable(16) %40)
  %41 = load float, ptr %call36, align 4
  %mul37 = fmul float %conv35, %41
  store float %mul37, ptr %ref.tmp33, align 4
  %42 = load ptr, ptr %graphicsbase28, align 8
  %arrayidx39 = getelementptr inbounds double, ptr %42, i64 1
  %43 = load double, ptr %arrayidx39, align 8
  %conv40 = fptrunc double %43 to float
  %44 = load ptr, ptr %meshScaling, align 8
  %call41 = call noundef nonnull align 4 dereferenceable(4) ptr @_ZNK9btVector34getYEv(ptr noundef nonnull align 4 dereferenceable(16) %44)
  %45 = load float, ptr %call41, align 4
  %mul42 = fmul float %conv40, %45
  store float %mul42, ptr %ref.tmp38, align 4
  %46 = load ptr, ptr %graphicsbase28, align 8
  %arrayidx44 = getelementptr inbounds double, ptr %46, i64 2
  %47 = load double, ptr %arrayidx44, align 8
  %conv45 = fptrunc double %47 to float
  %48 = load ptr, ptr %meshScaling, align 8
  %call46 = call noundef nonnull align 4 dereferenceable(4) ptr @_ZNK9btVector34getZEv(ptr noundef nonnull align 4 dereferenceable(16) %48)
  %49 = load float, ptr %call46, align 4
  %mul47 = fmul float %conv45, %49
  store float %mul47, ptr %ref.tmp43, align 4
  call void @_ZN9btVector3C2ERKfS1_S1_(ptr noundef nonnull align 4 dereferenceable(16) %ref.tmp32, ptr noundef nonnull align 4 dereferenceable(4) %ref.tmp33, ptr noundef nonnull align 4 dereferenceable(4) %ref.tmp38, ptr noundef nonnull align 4 dereferenceable(4) %ref.tmp43)
  %50 = load i32, ptr %j, align 4
  %idxprom48 = sext i32 %50 to i64
  %arrayidx49 = getelementptr inbounds [3 x %class.btVector3], ptr %m_triangle, i64 0, i64 %idxprom48
  call void @llvm.memcpy.p0.p0.i64(ptr align 16 %arrayidx49, ptr align 4 %ref.tmp32, i64 16, i1 false)
  br label %if.end

if.end:                                           ; preds = %if.else, %if.then
  br label %for.inc

for.inc:                                          ; preds = %if.end
  %51 = load i32, ptr %j, align 4
  %dec = add nsw i32 %51, -1
  store i32 %dec, ptr %j, align 4
  br label %for.cond, !llvm.loop !10

for.end:                                          ; preds = %for.cond
  %m_callback = getelementptr inbounds %struct.MyNodeOverlapCallback, ptr %this1, i32 0, i32 2
  %52 = load ptr, ptr %m_callback, align 8
  %arraydecay = getelementptr inbounds [3 x %class.btVector3], ptr %m_triangle, i64 0, i64 0
  %53 = load i32, ptr %nodeSubPart.addr, align 4
  %54 = load i32, ptr %nodeTriangleIndex.addr, align 4
  %vtable50 = load ptr, ptr %52, align 8
  %vfn51 = getelementptr inbounds ptr, ptr %vtable50, i64 2
  %55 = load ptr, ptr %vfn51, align 8
  call void %55(ptr noundef nonnull align 8 dereferenceable(8) %52, ptr noundef %arraydecay, i32 noundef %53, i32 noundef %54)
  %m_meshInterface52 = getelementptr inbounds %struct.MyNodeOverlapCallback, ptr %this1, i32 0, i32 1
  %56 = load ptr, ptr %m_meshInterface52, align 8
  %57 = load i32, ptr %nodeSubPart.addr, align 4
  %vtable53 = load ptr, ptr %56, align 8
  %vfn54 = getelementptr inbounds ptr, ptr %vtable53, i64 6
  %58 = load ptr, ptr %vfn54, align 8
  call void %58(ptr noundef nonnull align 8 dereferenceable(24) %56, i32 noundef %57)
  ret void
}