; Function Attrs: mustprogress uwtable
define internal void @_ZZN22btBvhTriangleMeshShape14performRaycastEP18btTriangleCallbackRK9btVector3S4_EN21MyNodeOverlapCallback11processNodeEii(ptr nocapture noundef nonnull readonly align 8 dereferenceable(24) %this, i32 noundef %nodeSubPart, i32 noundef %nodeTriangleIndex) unnamed_addr #0 align 2 {
entry:
  %m_triangle = alloca [3 x %class.btVector3], align 16
  %vertexbase = alloca ptr, align 8
  %numverts = alloca i32, align 4
  %type = alloca i32, align 4
  %stride = alloca i32, align 4
  %indexbase = alloca ptr, align 8
  %indexstride = alloca i32, align 4
  %numfaces = alloca i32, align 4
  %indicestype = alloca i32, align 4
  %m_meshInterface = getelementptr inbounds i8, ptr %this, i64 8
  %0 = load ptr, ptr %m_meshInterface, align 8
  %vtable = load ptr, ptr %0, align 8
  %vfn = getelementptr inbounds i8, ptr %vtable, i64 32
  %1 = load ptr, ptr %vfn, align 8
  call void %1(ptr noundef nonnull align 8 dereferenceable(24) %0, ptr noundef nonnull %vertexbase, ptr noundef nonnull align 4 dereferenceable(4) %numverts, ptr noundef nonnull align 4 dereferenceable(4) %type, ptr noundef nonnull align 4 dereferenceable(4) %stride, ptr noundef nonnull %indexbase, ptr noundef nonnull align 4 dereferenceable(4) %indexstride, ptr noundef nonnull align 4 dereferenceable(4) %numfaces, ptr noundef nonnull align 4 dereferenceable(4) %indicestype, i32 noundef %nodeSubPart)
  %2 = load ptr, ptr %indexbase, align 8
  %3 = load i32, ptr %indexstride, align 4
  %mul = mul nsw i32 %3, %nodeTriangleIndex
  %idx.ext = sext i32 %mul to i64
  %add.ptr = getelementptr inbounds i8, ptr %2, i64 %idx.ext
  %4 = load ptr, ptr %m_meshInterface, align 8
  %m_scaling.i = getelementptr inbounds i8, ptr %4, i64 8
  %5 = load i32, ptr %indicestype, align 4
  %6 = load i32, ptr %type, align 4
  %cmp10 = icmp eq i32 %6, 0
  %7 = load ptr, ptr %vertexbase, align 8
  %8 = load i32, ptr %stride, align 4
  %arrayidx.i24 = getelementptr inbounds i8, ptr %4, i64 16
  br i1 %cmp10, label %for.body.us, label %for.body

for.body.us:                                      ; preds = %entry, %sw.epilog.us
  %indvars.iv32 = phi i64 [ %indvars.iv.next33, %sw.epilog.us ], [ 2, %entry ]
  %graphicsindex.028.us = phi i32 [ %graphicsindex.1.us, %sw.epilog.us ], [ undef, %entry ]
  switch i32 %5, label %sw.epilog.us [
    i32 2, label %sw.bb.us
    i32 3, label %sw.bb3.us
    i32 5, label %sw.bb6.us
  ]

sw.bb6.us:                                        ; preds = %for.body.us
  %arrayidx8.us = getelementptr inbounds i8, ptr %add.ptr, i64 %indvars.iv32
  %9 = load i8, ptr %arrayidx8.us, align 1
  %conv9.us = zext i8 %9 to i32
  br label %sw.epilog.us

sw.bb3.us:                                        ; preds = %for.body.us
  %arrayidx5.us = getelementptr inbounds i16, ptr %add.ptr, i64 %indvars.iv32
  %10 = load i16, ptr %arrayidx5.us, align 2
  %conv.us = zext i16 %10 to i32
  br label %sw.epilog.us

sw.bb.us:                                         ; preds = %for.body.us
  %arrayidx.us = getelementptr inbounds i32, ptr %add.ptr, i64 %indvars.iv32
  %11 = load i32, ptr %arrayidx.us, align 4
  br label %sw.epilog.us

sw.epilog.us:                                     ; preds = %sw.bb.us, %sw.bb3.us, %sw.bb6.us, %for.body.us
  %graphicsindex.1.us = phi i32 [ %graphicsindex.028.us, %for.body.us ], [ %conv9.us, %sw.bb6.us ], [ %conv.us, %sw.bb3.us ], [ %11, %sw.bb.us ]
  %mul11.us = mul nsw i32 %8, %graphicsindex.1.us
  %idx.ext12.us = sext i32 %mul11.us to i64
  %add.ptr13.us = getelementptr inbounds i8, ptr %7, i64 %idx.ext12.us
  %arrayidx23.us = getelementptr inbounds i8, ptr %add.ptr13.us, i64 8
  %12 = load float, ptr %arrayidx23.us, align 4
  %13 = load float, ptr %arrayidx.i24, align 4
  %mul25.us = fmul float %12, %13
  %arrayidx27.us = getelementptr inbounds [3 x %class.btVector3], ptr %m_triangle, i64 0, i64 %indvars.iv32
  %14 = load <2 x float>, ptr %add.ptr13.us, align 4
  %15 = load <2 x float>, ptr %m_scaling.i, align 4
  %16 = fmul <2 x float> %14, %15
  store <2 x float> %16, ptr %arrayidx27.us, align 16
  %ref.tmp.sroa.3.0.arrayidx27.sroa_idx.us = getelementptr inbounds i8, ptr %arrayidx27.us, i64 8
  store float %mul25.us, ptr %ref.tmp.sroa.3.0.arrayidx27.sroa_idx.us, align 8
  %ref.tmp.sroa.4.0.arrayidx27.sroa_idx.us = getelementptr inbounds i8, ptr %arrayidx27.us, i64 12
  store float 0.000000e+00, ptr %ref.tmp.sroa.4.0.arrayidx27.sroa_idx.us, align 4
  %indvars.iv.next33 = add nsw i64 %indvars.iv32, -1
  %cmp.us.not = icmp eq i64 %indvars.iv32, 0
  br i1 %cmp.us.not, label %for.end, label %for.body.us, !llvm.loop !5

for.body:                                         ; preds = %entry, %sw.epilog
  %indvars.iv = phi i64 [ %indvars.iv.next, %sw.epilog ], [ 2, %entry ]
  %graphicsindex.028 = phi i32 [ %graphicsindex.1, %sw.epilog ], [ undef, %entry ]
  switch i32 %5, label %sw.epilog [
    i32 2, label %sw.bb
    i32 3, label %sw.bb3
    i32 5, label %sw.bb6
  ]

sw.bb:                                            ; preds = %for.body
  %arrayidx = getelementptr inbounds i32, ptr %add.ptr, i64 %indvars.iv
  %17 = load i32, ptr %arrayidx, align 4
  br label %sw.epilog

sw.bb3:                                           ; preds = %for.body
  %arrayidx5 = getelementptr inbounds i16, ptr %add.ptr, i64 %indvars.iv
  %18 = load i16, ptr %arrayidx5, align 2
  %conv = zext i16 %18 to i32
  br label %sw.epilog

sw.bb6:                                           ; preds = %for.body
  %arrayidx8 = getelementptr inbounds i8, ptr %add.ptr, i64 %indvars.iv
  %19 = load i8, ptr %arrayidx8, align 1
  %conv9 = zext i8 %19 to i32
  br label %sw.epilog

sw.epilog:                                        ; preds = %for.body, %sw.bb6, %sw.bb3, %sw.bb
  %graphicsindex.1 = phi i32 [ %graphicsindex.028, %for.body ], [ %conv9, %sw.bb6 ], [ %conv, %sw.bb3 ], [ %17, %sw.bb ]
  %mul29 = mul nsw i32 %8, %graphicsindex.1
  %idx.ext30 = sext i32 %mul29 to i64
  %add.ptr31 = getelementptr inbounds i8, ptr %7, i64 %idx.ext30
  %arrayidx44 = getelementptr inbounds i8, ptr %add.ptr31, i64 16
  %20 = load double, ptr %arrayidx44, align 8
  %conv45 = fptrunc double %20 to float
  %21 = load float, ptr %arrayidx.i24, align 4
  %mul47 = fmul float %21, %conv45
  %arrayidx49 = getelementptr inbounds [3 x %class.btVector3], ptr %m_triangle, i64 0, i64 %indvars.iv
  %22 = load <2 x double>, ptr %add.ptr31, align 8
  %23 = fptrunc <2 x double> %22 to <2 x float>
  %24 = load <2 x float>, ptr %m_scaling.i, align 4
  %25 = fmul <2 x float> %24, %23
  store <2 x float> %25, ptr %arrayidx49, align 16
  %ref.tmp32.sroa.3.0.arrayidx49.sroa_idx = getelementptr inbounds i8, ptr %arrayidx49, i64 8
  store float %mul47, ptr %ref.tmp32.sroa.3.0.arrayidx49.sroa_idx, align 8
  %ref.tmp32.sroa.4.0.arrayidx49.sroa_idx = getelementptr inbounds i8, ptr %arrayidx49, i64 12
  store float 0.000000e+00, ptr %ref.tmp32.sroa.4.0.arrayidx49.sroa_idx, align 4
  %indvars.iv.next = add nsw i64 %indvars.iv, -1
  %cmp.not = icmp eq i64 %indvars.iv, 0
  br i1 %cmp.not, label %for.end, label %for.body, !llvm.loop !5

for.end:                                          ; preds = %sw.epilog, %sw.epilog.us
  %m_callback = getelementptr inbounds i8, ptr %this, i64 16
  %26 = load ptr, ptr %m_callback, align 8
  %vtable50 = load ptr, ptr %26, align 8
  %vfn51 = getelementptr inbounds i8, ptr %vtable50, i64 16
  %27 = load ptr, ptr %vfn51, align 8
  call void %27(ptr noundef nonnull align 8 dereferenceable(8) %26, ptr noundef nonnull %m_triangle, i32 noundef %nodeSubPart, i32 noundef %nodeTriangleIndex)
  %28 = load ptr, ptr %m_meshInterface, align 8
  %vtable53 = load ptr, ptr %28, align 8
  %vfn54 = getelementptr inbounds i8, ptr %vtable53, i64 48
  %29 = load ptr, ptr %vfn54, align 8
  call void %29(ptr noundef nonnull align 8 dereferenceable(24) %28, i32 noundef %nodeSubPart)
  ret void
}